; Function Attrs: mustprogress null_pointer_is_valid sspstrong uwtable
define void @_ZN13PacketDiagram20selectedFieldChangedEP16FieldInformation(ptr noundef align 8 dereferenceable_or_null(76) %0, ptr noundef %1) #0 align 2 {
  %.not = icmp eq ptr %1, null
  br i1 %.not, label %5, label %3

3:                                                ; preds = %2
  %4 = tail call noundef ptr @_ZNK16FieldInformation9fieldInfoEv(ptr noundef nonnull align 8 dereferenceable_or_null(40) %1)
  br label %5

5:                                                ; preds = %2, %3
  %6 = phi ptr [ %4, %3 ], [ null, %2 ]
  tail call void @_ZN13PacketDiagram16setSelectedFieldEP10field_info(ptr noundef align 8 dereferenceable_or_null(76) %0, ptr noundef %6)
  ret void
}